target datalayout = "e-m:e-p270:32:32-p271:32:32-p272:64:64-i64:64-i128:128-f80:128-n8:16:32:64-S128"
target triple = "x86_64-pc-linux-gnu"

%struct._zval_struct = type { %union._zend_value, %union.anon, %union.anon.2 }
%union._zend_value = type { i64 }
%union.anon = type { i32 }
%union.anon.2 = type { i32 }
%struct._zend_refcounted_h = type { i32, %union.anon.3 }
%union.anon.3 = type { i32 }
%struct._spl_dllist_object = type { ptr, ptr, i32, i32, ptr, ptr, ptr, ptr, ptr, ptr, %struct._zend_object }
%struct._zend_object = type { %struct._zend_refcounted_h, i32, i32, ptr, ptr, ptr, [1 x %struct._zval_struct] }
%struct._spl_ptr_llist = type { ptr, ptr, i32 }
%struct._spl_ptr_llist_element = type { ptr, ptr, %struct._zval_struct }

; Function Attrs: nounwind uwtable
define internal void @spl_ptr_llist_destroy(ptr noundef %0) #0 {
  %2 = alloca ptr, align 8
  %3 = alloca ptr, align 8
  %4 = alloca ptr, align 8
  store ptr %0, ptr %2, align 8, !tbaa !55
  call void @llvm.lifetime.start.p0(i64 8, ptr %3) #14
  %5 = load ptr, ptr %2, align 8, !tbaa !55
  %6 = getelementptr inbounds nuw %struct._spl_ptr_llist, ptr %5, i32 0, i32 0
  %7 = load ptr, ptr %6, align 8, !tbaa !65
  store ptr %7, ptr %3, align 8, !tbaa !56
  call void @llvm.lifetime.start.p0(i64 8, ptr %4) #14
  br label %8

8:                                                ; preds = %25, %1
  %9 = load ptr, ptr %3, align 8, !tbaa !56
  %10 = icmp ne ptr %9, null
  br i1 %10, label %11, label %27

11:                                               ; preds = %8
  %12 = load ptr, ptr %3, align 8, !tbaa !56
  %13 = getelementptr inbounds nuw %struct._spl_ptr_llist_element, ptr %12, i32 0, i32 1
  %14 = load ptr, ptr %13, align 8, !tbaa !61
  store ptr %14, ptr %4, align 8, !tbaa !56
  %15 = load ptr, ptr %3, align 8, !tbaa !56
  %16 = getelementptr inbounds nuw %struct._spl_ptr_llist_element, ptr %15, i32 0, i32 2
  call void @zval_ptr_dtor(ptr noundef %16)
  %17 = load ptr, ptr %3, align 8, !tbaa !56
  %18 = getelementptr inbounds nuw %struct._spl_ptr_llist_element, ptr %17, i32 0, i32 2
  %19 = getelementptr inbounds nuw %struct._zval_struct, ptr %18, i32 0, i32 2
  %20 = load i32, ptr %19, align 4, !tbaa !11
  %21 = add i32 %20, -1
  store i32 %21, ptr %19, align 4, !tbaa !11
  %22 = icmp ne i32 %21, 0
  br i1 %22, label %25, label %23

23:                                               ; preds = %11
  %24 = load ptr, ptr %3, align 8, !tbaa !56
  call void @_efree(ptr noundef %24)
  br label %25

25:                                               ; preds = %23, %11
  %26 = load ptr, ptr %4, align 8, !tbaa !56
  store ptr %26, ptr %3, align 8, !tbaa !56
  br label %8

27:                                               ; preds = %8
  %28 = load ptr, ptr %2, align 8, !tbaa !55
  call void @_efree(ptr noundef %28)
  call void @llvm.lifetime.end.p0(i64 8, ptr %4) #14
  call void @llvm.lifetime.end.p0(i64 8, ptr %3) #14
  ret void
}

; Function Attrs: nounwind uwtable
define internal void @spl_ptr_llist_pop(ptr noundef %0, ptr noundef %1) #0 {
  %3 = alloca ptr, align 8
  %4 = alloca ptr, align 8
  %5 = alloca ptr, align 8
  %6 = alloca i32, align 4
  %7 = alloca ptr, align 8
  %8 = alloca ptr, align 8
  %9 = alloca ptr, align 8
  %10 = alloca i32, align 4
  store ptr %0, ptr %3, align 8, !tbaa !55
  store ptr %1, ptr %4, align 8, !tbaa !9
  call void @llvm.lifetime.start.p0(i64 8, ptr %5) #14
  %11 = load ptr, ptr %3, align 8, !tbaa !55
  %12 = getelementptr inbounds nuw %struct._spl_ptr_llist, ptr %11, i32 0, i32 1
  %13 = load ptr, ptr %12, align 8, !tbaa !57
  store ptr %13, ptr %5, align 8, !tbaa !56
  %14 = load ptr, ptr %5, align 8, !tbaa !56
  %15 = icmp eq ptr %14, null
  br i1 %15, label %16, label %22

16:                                               ; preds = %2
  br label %17

17:                                               ; preds = %16
  %18 = load ptr, ptr %4, align 8, !tbaa !9
  %19 = getelementptr inbounds nuw %struct._zval_struct, ptr %18, i32 0, i32 1
  store i32 0, ptr %19, align 8, !tbaa !11
  br label %20

20:                                               ; preds = %17
  br label %21

21:                                               ; preds = %20
  store i32 1, ptr %6, align 4
  br label %83

22:                                               ; preds = %2
  %23 = load ptr, ptr %5, align 8, !tbaa !56
  %24 = getelementptr inbounds nuw %struct._spl_ptr_llist_element, ptr %23, i32 0, i32 0
  %25 = load ptr, ptr %24, align 8, !tbaa !59
  %26 = icmp ne ptr %25, null
  br i1 %26, label %27, label %32

27:                                               ; preds = %22
  %28 = load ptr, ptr %5, align 8, !tbaa !56
  %29 = getelementptr inbounds nuw %struct._spl_ptr_llist_element, ptr %28, i32 0, i32 0
  %30 = load ptr, ptr %29, align 8, !tbaa !59
  %31 = getelementptr inbounds nuw %struct._spl_ptr_llist_element, ptr %30, i32 0, i32 1
  store ptr null, ptr %31, align 8, !tbaa !61
  br label %35

32:                                               ; preds = %22
  %33 = load ptr, ptr %3, align 8, !tbaa !55
  %34 = getelementptr inbounds nuw %struct._spl_ptr_llist, ptr %33, i32 0, i32 0
  store ptr null, ptr %34, align 8, !tbaa !65
  br label %35

35:                                               ; preds = %32, %27
  %36 = load ptr, ptr %5, align 8, !tbaa !56
  %37 = getelementptr inbounds nuw %struct._spl_ptr_llist_element, ptr %36, i32 0, i32 0
  %38 = load ptr, ptr %37, align 8, !tbaa !59
  %39 = load ptr, ptr %3, align 8, !tbaa !55
  %40 = getelementptr inbounds nuw %struct._spl_ptr_llist, ptr %39, i32 0, i32 1
  store ptr %38, ptr %40, align 8, !tbaa !57
  %41 = load ptr, ptr %3, align 8, !tbaa !55
  %42 = getelementptr inbounds nuw %struct._spl_ptr_llist, ptr %41, i32 0, i32 2
  %43 = load i32, ptr %42, align 8, !tbaa !66
  %44 = add nsw i32 %43, -1
  store i32 %44, ptr %42, align 8, !tbaa !66
  br label %45

45:                                               ; preds = %35
  call void @llvm.lifetime.start.p0(i64 8, ptr %7) #14
  %46 = load ptr, ptr %4, align 8, !tbaa !9
  store ptr %46, ptr %7, align 8, !tbaa !9
  call void @llvm.lifetime.start.p0(i64 8, ptr %8) #14
  %47 = load ptr, ptr %5, align 8, !tbaa !56
  %48 = getelementptr inbounds nuw %struct._spl_ptr_llist_element, ptr %47, i32 0, i32 2
  store ptr %48, ptr %8, align 8, !tbaa !9
  call void @llvm.lifetime.start.p0(i64 8, ptr %9) #14
  %49 = load ptr, ptr %8, align 8, !tbaa !9
  %50 = getelementptr inbounds nuw %struct._zval_struct, ptr %49, i32 0, i32 0
  %51 = load ptr, ptr %50, align 8, !tbaa !11
  store ptr %51, ptr %9, align 8, !tbaa !62
  call void @llvm.lifetime.start.p0(i64 4, ptr %10) #14
  %52 = load ptr, ptr %8, align 8, !tbaa !9
  %53 = getelementptr inbounds nuw %struct._zval_struct, ptr %52, i32 0, i32 1
  %54 = load i32, ptr %53, align 8, !tbaa !11
  store i32 %54, ptr %10, align 4, !tbaa !64
  br label %55

55:                                               ; preds = %45
  %56 = load ptr, ptr %9, align 8, !tbaa !62
  %57 = load ptr, ptr %7, align 8, !tbaa !9
  %58 = getelementptr inbounds nuw %struct._zval_struct, ptr %57, i32 0, i32 0
  store ptr %56, ptr %58, align 8, !tbaa !11
  %59 = load i32, ptr %10, align 4, !tbaa !64
  %60 = load ptr, ptr %7, align 8, !tbaa !9
  %61 = getelementptr inbounds nuw %struct._zval_struct, ptr %60, i32 0, i32 1
  store i32 %59, ptr %61, align 8, !tbaa !11
  br label %62

62:                                               ; preds = %55
  br label %63

63:                                               ; preds = %62
  call void @llvm.lifetime.end.p0(i64 4, ptr %10) #14
  call void @llvm.lifetime.end.p0(i64 8, ptr %9) #14
  call void @llvm.lifetime.end.p0(i64 8, ptr %8) #14
  call void @llvm.lifetime.end.p0(i64 8, ptr %7) #14
  br label %64

64:                                               ; preds = %63
  br label %65

65:                                               ; preds = %64
  br label %66

66:                                               ; preds = %65
  %67 = load ptr, ptr %5, align 8, !tbaa !56
  %68 = getelementptr inbounds nuw %struct._spl_ptr_llist_element, ptr %67, i32 0, i32 2
  %69 = getelementptr inbounds nuw %struct._zval_struct, ptr %68, i32 0, i32 1
  store i32 0, ptr %69, align 8, !tbaa !11
  br label %70

70:                                               ; preds = %66
  br label %71

71:                                               ; preds = %70
  %72 = load ptr, ptr %5, align 8, !tbaa !56
  %73 = getelementptr inbounds nuw %struct._spl_ptr_llist_element, ptr %72, i32 0, i32 0
  store ptr null, ptr %73, align 8, !tbaa !59
  %74 = load ptr, ptr %5, align 8, !tbaa !56
  %75 = getelementptr inbounds nuw %struct._spl_ptr_llist_element, ptr %74, i32 0, i32 2
  %76 = getelementptr inbounds nuw %struct._zval_struct, ptr %75, i32 0, i32 2
  %77 = load i32, ptr %76, align 4, !tbaa !11
  %78 = add i32 %77, -1
  store i32 %78, ptr %76, align 4, !tbaa !11
  %79 = icmp ne i32 %78, 0
  br i1 %79, label %82, label %80

80:                                               ; preds = %71
  %81 = load ptr, ptr %5, align 8, !tbaa !56
  call void @_efree(ptr noundef %81)
  br label %82

82:                                               ; preds = %80, %71
  store i32 0, ptr %6, align 4
  br label %83

83:                                               ; preds = %82, %21
  call void @llvm.lifetime.end.p0(i64 8, ptr %5) #14
  %84 = load i32, ptr %6, align 4
  switch i32 %84, label %86 [
    i32 0, label %85
    i32 1, label %85
  ]

85:                                               ; preds = %83, %83
  ret void

86:                                               ; preds = %83
  unreachable
}

; Function Attrs: inlinehint nounwind uwtable
define internal ptr @spl_dllist_from_obj(ptr noundef %0) #4 {
  %2 = alloca ptr, align 8
  store ptr %0, ptr %2, align 8, !tbaa !54
  %3 = load ptr, ptr %2, align 8, !tbaa !54
  %4 = getelementptr inbounds i8, ptr %3, i64 -72
  ret ptr %4
}

; Function Attrs: nounwind uwtable
define internal void @spl_dllist_object_free_storage(ptr noundef %0) #0 {
  %2 = alloca ptr, align 8
  %3 = alloca ptr, align 8
  %4 = alloca %struct._zval_struct, align 8
  store ptr %0, ptr %2, align 8, !tbaa !54
  call void @llvm.lifetime.start.p0(i64 8, ptr %3) #14
  %5 = load ptr, ptr %2, align 8, !tbaa !54
  %6 = call ptr @spl_dllist_from_obj(ptr noundef %5)
  store ptr %6, ptr %3, align 8, !tbaa !45
  call void @llvm.lifetime.start.p0(i64 16, ptr %4) #14
  %7 = load ptr, ptr %3, align 8, !tbaa !45
  %8 = getelementptr inbounds nuw %struct._spl_dllist_object, ptr %7, i32 0, i32 10
  call void @zend_object_std_dtor(ptr noundef %8)
  %9 = load ptr, ptr %3, align 8, !tbaa !45
  %10 = getelementptr inbounds nuw %struct._spl_dllist_object, ptr %9, i32 0, i32 0
  %11 = load ptr, ptr %10, align 8, !tbaa !47
  %12 = icmp ne ptr %11, null
  br i1 %12, label %13, label %29

13:                                               ; preds = %1
  br label %14

14:                                               ; preds = %21, %13
  %15 = load ptr, ptr %3, align 8, !tbaa !45
  %16 = getelementptr inbounds nuw %struct._spl_dllist_object, ptr %15, i32 0, i32 0
  %17 = load ptr, ptr %16, align 8, !tbaa !47
  %18 = getelementptr inbounds nuw %struct._spl_ptr_llist, ptr %17, i32 0, i32 2
  %19 = load i32, ptr %18, align 8, !tbaa !66
  %20 = icmp sgt i32 %19, 0
  br i1 %20, label %21, label %25

21:                                               ; preds = %14
  %22 = load ptr, ptr %3, align 8, !tbaa !45
  %23 = getelementptr inbounds nuw %struct._spl_dllist_object, ptr %22, i32 0, i32 0
  %24 = load ptr, ptr %23, align 8, !tbaa !47
  call void @spl_ptr_llist_pop(ptr noundef %24, ptr noundef %4)
  call void @zval_ptr_dtor(ptr noundef %4)
  br label %14

25:                                               ; preds = %14
  %26 = load ptr, ptr %3, align 8, !tbaa !45
  %27 = getelementptr inbounds nuw %struct._spl_dllist_object, ptr %26, i32 0, i32 0
  %28 = load ptr, ptr %27, align 8, !tbaa !47
  call void @spl_ptr_llist_destroy(ptr noundef %28)
  br label %29

29:                                               ; preds = %25, %1
  %30 = load ptr, ptr %3, align 8, !tbaa !45
  %31 = getelementptr inbounds nuw %struct._spl_dllist_object, ptr %30, i32 0, i32 1
  %32 = load ptr, ptr %31, align 8, !tbaa !80
  %33 = icmp ne ptr %32, null
  br i1 %33, label %34, label %47

34:                                               ; preds = %29
  %35 = load ptr, ptr %3, align 8, !tbaa !45
  %36 = getelementptr inbounds nuw %struct._spl_dllist_object, ptr %35, i32 0, i32 1
  %37 = load ptr, ptr %36, align 8, !tbaa !80
  %38 = getelementptr inbounds nuw %struct._spl_ptr_llist_element, ptr %37, i32 0, i32 2
  %39 = getelementptr inbounds nuw %struct._zval_struct, ptr %38, i32 0, i32 2
  %40 = load i32, ptr %39, align 4, !tbaa !11
  %41 = add i32 %40, -1
  store i32 %41, ptr %39, align 4, !tbaa !11
  %42 = icmp ne i32 %41, 0
  br i1 %42, label %47, label %43

43:                                               ; preds = %34
  %44 = load ptr, ptr %3, align 8, !tbaa !45
  %45 = getelementptr inbounds nuw %struct._spl_dllist_object, ptr %44, i32 0, i32 1
  %46 = load ptr, ptr %45, align 8, !tbaa !80
  call void @_efree(ptr noundef %46)
  br label %47

47:                                               ; preds = %43, %34, %29
  call void @llvm.lifetime.end.p0(i64 16, ptr %4) #14
  call void @llvm.lifetime.end.p0(i64 8, ptr %3) #14
  ret void
}