; Function Attrs: nounwind uwtable
define internal void @spl_dllist_object_free_storage(ptr noundef %0) #0 {
  %2 = alloca %struct._zval_struct, align 8
  %3 = getelementptr inbounds i8, ptr %0, i64 -72
  call void @llvm.lifetime.start.p0(i64 16, ptr nonnull %2) #13
  tail call void @zend_object_std_dtor(ptr noundef nonnull %0) #13
  %4 = load ptr, ptr %3, align 8, !tbaa !43
  %.not = icmp eq ptr %4, null
  br i1 %.not, label %45, label %.preheader

.preheader:                                       ; preds = %1
  %5 = getelementptr inbounds nuw i8, ptr %4, i64 16
  %6 = load i32, ptr %5, align 8, !tbaa !58
  %7 = icmp sgt i32 %6, 0
  br i1 %7, label %.lr.ph, label %._crit_edge

.lr.ph:                                           ; preds = %.preheader
  %8 = getelementptr inbounds nuw i8, ptr %2, i64 8
  br label %9

9:                                                ; preds = %.lr.ph, %spl_ptr_llist_pop.exit
  %10 = phi i32 [ %6, %.lr.ph ], [ %34, %spl_ptr_llist_pop.exit ]
  %11 = phi ptr [ %5, %.lr.ph ], [ %33, %spl_ptr_llist_pop.exit ]
  %12 = phi ptr [ %4, %.lr.ph ], [ %32, %spl_ptr_llist_pop.exit ]
  %13 = getelementptr inbounds nuw i8, ptr %12, i64 8
  %14 = load ptr, ptr %13, align 8, !tbaa !51
  %15 = icmp eq ptr %14, null
  br i1 %15, label %16, label %17

16:                                               ; preds = %9
  store i32 0, ptr %8, align 8, !tbaa !4
  br label %spl_ptr_llist_pop.exit

17:                                               ; preds = %9
  %18 = load ptr, ptr %14, align 8, !tbaa !53
  %.not.i = icmp eq ptr %18, null
  br i1 %.not.i, label %21, label %19

19:                                               ; preds = %17
  %20 = getelementptr inbounds nuw i8, ptr %18, i64 8
  store ptr null, ptr %20, align 8, !tbaa !55
  br label %22

21:                                               ; preds = %17
  store ptr null, ptr %12, align 8, !tbaa !57
  br label %22

22:                                               ; preds = %21, %19
  store ptr %18, ptr %13, align 8, !tbaa !51
  %23 = add nsw i32 %10, -1
  store i32 %23, ptr %11, align 8, !tbaa !58
  %24 = getelementptr inbounds nuw i8, ptr %14, i64 16
  %25 = load ptr, ptr %24, align 8, !tbaa !4
  %26 = getelementptr inbounds nuw i8, ptr %14, i64 24
  %27 = load i32, ptr %26, align 8, !tbaa !4
  store ptr %25, ptr %2, align 8, !tbaa !4
  store i32 %27, ptr %8, align 8, !tbaa !4
  store i32 0, ptr %26, align 8, !tbaa !4
  store ptr null, ptr %14, align 8, !tbaa !53
  %28 = getelementptr inbounds nuw i8, ptr %14, i64 28
  %29 = load i32, ptr %28, align 4, !tbaa !4
  %30 = add i32 %29, -1
  store i32 %30, ptr %28, align 4, !tbaa !4
  %.not21.i = icmp eq i32 %30, 0
  br i1 %.not21.i, label %31, label %spl_ptr_llist_pop.exit

31:                                               ; preds = %22
  call void @_efree(ptr noundef nonnull %14) #13
  br label %spl_ptr_llist_pop.exit

spl_ptr_llist_pop.exit:                           ; preds = %16, %22, %31
  call void @zval_ptr_dtor(ptr noundef nonnull %2) #13
  %32 = load ptr, ptr %3, align 8, !tbaa !43
  %33 = getelementptr inbounds nuw i8, ptr %32, i64 16
  %34 = load i32, ptr %33, align 8, !tbaa !58
  %35 = icmp sgt i32 %34, 0
  br i1 %35, label %9, label %._crit_edge

._crit_edge:                                      ; preds = %spl_ptr_llist_pop.exit, %.preheader
  %.lcssa = phi ptr [ %4, %.preheader ], [ %32, %spl_ptr_llist_pop.exit ]
  %36 = load ptr, ptr %.lcssa, align 8, !tbaa !57
  %.not9.i = icmp eq ptr %36, null
  br i1 %.not9.i, label %spl_ptr_llist_destroy.exit, label %.lr.ph.i

.lr.ph.i:                                         ; preds = %._crit_edge, %44
  %.010.i = phi ptr [ %38, %44 ], [ %36, %._crit_edge ]
  %37 = getelementptr inbounds nuw i8, ptr %.010.i, i64 8
  %38 = load ptr, ptr %37, align 8, !tbaa !55
  %39 = getelementptr inbounds nuw i8, ptr %.010.i, i64 16
  call void @zval_ptr_dtor(ptr noundef nonnull %39) #13
  %40 = getelementptr inbounds nuw i8, ptr %.010.i, i64 28
  %41 = load i32, ptr %40, align 4, !tbaa !4
  %42 = add i32 %41, -1
  store i32 %42, ptr %40, align 4, !tbaa !4
  %.not8.i = icmp eq i32 %42, 0
  br i1 %.not8.i, label %43, label %44

43:                                               ; preds = %.lr.ph.i
  call void @_efree(ptr noundef nonnull %.010.i) #13
  br label %44

44:                                               ; preds = %43, %.lr.ph.i
  %.not.i11 = icmp eq ptr %38, null
  br i1 %.not.i11, label %spl_ptr_llist_destroy.exit, label %.lr.ph.i

spl_ptr_llist_destroy.exit:                       ; preds = %44, %._crit_edge
  call void @_efree(ptr noundef nonnull %.lcssa) #13
  br label %45

45:                                               ; preds = %spl_ptr_llist_destroy.exit, %1
  %46 = getelementptr inbounds i8, ptr %0, i64 -64
  %47 = load ptr, ptr %46, align 8, !tbaa !71
  %.not9 = icmp eq ptr %47, null
  br i1 %.not9, label %54, label %48

48:                                               ; preds = %45
  %49 = getelementptr inbounds nuw i8, ptr %47, i64 28
  %50 = load i32, ptr %49, align 4, !tbaa !4
  %51 = add i32 %50, -1
  store i32 %51, ptr %49, align 4, !tbaa !4
  %.not10 = icmp eq i32 %51, 0
  br i1 %.not10, label %52, label %54

52:                                               ; preds = %48
  %53 = load ptr, ptr %46, align 8, !tbaa !71
  call void @_efree(ptr noundef %53) #13
  br label %54

54:                                               ; preds = %52, %48, %45
  call void @llvm.lifetime.end.p0(i64 16, ptr nonnull %2) #13
  ret void
}